target datalayout = "e-m:e-p270:32:32-p271:32:32-p272:64:64-i64:64-i128:128-f80:128-n8:16:32:64-S128"
target triple = "x86_64-pc-linux-gnu"

%struct.Lpk_Fun_t_ = type { ptr, i32, i32, [32 x i32], i32, [16 x i32], [16 x i8], [0 x i32] }
%struct.Vec_Ptr_t_ = type { i32, i32, ptr }

; Function Attrs: inlinehint nounwind uwtable
define internal void @Vec_PtrShrink(ptr noundef %0, i32 noundef %1) #2 {
  %3 = alloca ptr, align 8
  %4 = alloca i32, align 4
  store ptr %0, ptr %3, align 8, !tbaa !10
  store i32 %1, ptr %4, align 4, !tbaa !26
  %5 = load i32, ptr %4, align 4, !tbaa !26
  %6 = load ptr, ptr %3, align 8, !tbaa !10
  %7 = getelementptr inbounds nuw %struct.Vec_Ptr_t_, ptr %6, i32 0, i32 1
  store i32 %5, ptr %7, align 4, !tbaa !59
  ret void
}

; Function Attrs: inlinehint nounwind uwtable
define internal void @Vec_PtrWriteEntry(ptr noundef %0, i32 noundef %1, ptr noundef %2) #2 {
  %4 = alloca ptr, align 8
  %5 = alloca i32, align 4
  %6 = alloca ptr, align 8
  store ptr %0, ptr %4, align 8, !tbaa !10
  store i32 %1, ptr %5, align 4, !tbaa !26
  store ptr %2, ptr %6, align 8, !tbaa !47
  %7 = load ptr, ptr %6, align 8, !tbaa !47
  %8 = load ptr, ptr %4, align 8, !tbaa !10
  %9 = getelementptr inbounds nuw %struct.Vec_Ptr_t_, ptr %8, i32 0, i32 2
  %10 = load ptr, ptr %9, align 8, !tbaa !45
  %11 = load i32, ptr %5, align 4, !tbaa !26
  %12 = sext i32 %11 to i64
  %13 = getelementptr inbounds ptr, ptr %10, i64 %12
  store ptr %7, ptr %13, align 8, !tbaa !47
  ret void
}

; Function Attrs: inlinehint nounwind uwtable
define internal ptr @Abc_ObjNot(ptr noundef %0) #2 {
  %2 = alloca ptr, align 8
  store ptr %0, ptr %2, align 8, !tbaa !25
  %3 = load ptr, ptr %2, align 8, !tbaa !25
  %4 = ptrtoint ptr %3 to i64
  %5 = xor i64 %4, 1
  %6 = inttoptr i64 %5 to ptr
  ret ptr %6
}

; Function Attrs: inlinehint nounwind uwtable
define internal ptr @Vec_PtrEntry(ptr noundef %0, i32 noundef %1) #2 {
  %3 = alloca ptr, align 8
  %4 = alloca i32, align 4
  store ptr %0, ptr %3, align 8, !tbaa !10
  store i32 %1, ptr %4, align 4, !tbaa !26
  %5 = load ptr, ptr %3, align 8, !tbaa !10
  %6 = getelementptr inbounds nuw %struct.Vec_Ptr_t_, ptr %5, i32 0, i32 2
  %7 = load ptr, ptr %6, align 8, !tbaa !45
  %8 = load i32, ptr %4, align 4, !tbaa !26
  %9 = sext i32 %8 to i64
  %10 = getelementptr inbounds ptr, ptr %7, i64 %9
  %11 = load ptr, ptr %10, align 8, !tbaa !47
  ret ptr %11
}

; Function Attrs: nounwind uwtable
define void @Lpk_DecomposeClean(ptr noundef %0, i32 noundef %1) #0 {
  %3 = alloca ptr, align 8
  %4 = alloca i32, align 4
  %5 = alloca ptr, align 8
  %6 = alloca i32, align 4
  store ptr %0, ptr %3, align 8, !tbaa !10
  store i32 %1, ptr %4, align 4, !tbaa !26
  call void @llvm.lifetime.start.p0(i64 8, ptr %5) #6
  call void @llvm.lifetime.start.p0(i64 4, ptr %6) #6
  %7 = load i32, ptr %4, align 4, !tbaa !26
  store i32 %7, ptr %6, align 4, !tbaa !26
  br label %8

8:                                                ; preds = %21, %2
  %9 = load i32, ptr %6, align 4, !tbaa !26
  %10 = load ptr, ptr %3, align 8, !tbaa !10
  %11 = call i32 @Vec_PtrSize(ptr noundef %10)
  %12 = icmp slt i32 %9, %11
  br i1 %12, label %13, label %17

13:                                               ; preds = %8
  %14 = load ptr, ptr %3, align 8, !tbaa !10
  %15 = load i32, ptr %6, align 4, !tbaa !26
  %16 = call ptr @Vec_PtrEntry(ptr noundef %14, i32 noundef %15)
  store ptr %16, ptr %5, align 8, !tbaa !12
  br label %17

17:                                               ; preds = %13, %8
  %18 = phi i1 [ false, %8 ], [ true, %13 ]
  br i1 %18, label %19, label %24

19:                                               ; preds = %17
  %20 = load ptr, ptr %5, align 8, !tbaa !12
  call void @Lpk_FunFree(ptr noundef %20)
  br label %21

21:                                               ; preds = %19
  %22 = load i32, ptr %6, align 4, !tbaa !26
  %23 = add nsw i32 %22, 1
  store i32 %23, ptr %6, align 4, !tbaa !26
  br label %8, !llvm.loop !83

24:                                               ; preds = %17
  %25 = load ptr, ptr %3, align 8, !tbaa !10
  %26 = load i32, ptr %4, align 4, !tbaa !26
  call void @Vec_PtrShrink(ptr noundef %25, i32 noundef %26)
  call void @llvm.lifetime.end.p0(i64 4, ptr %6) #6
  call void @llvm.lifetime.end.p0(i64 8, ptr %5) #6
  ret void
}

; Function Attrs: nounwind uwtable
define ptr @Lpk_Implement(ptr noundef %0, ptr noundef %1, ptr noundef %2, i32 noundef %3) #0 {
  %5 = alloca ptr, align 8
  %6 = alloca ptr, align 8
  %7 = alloca ptr, align 8
  %8 = alloca i32, align 4
  %9 = alloca ptr, align 8
  %10 = alloca ptr, align 8
  %11 = alloca i32, align 4
  store ptr %0, ptr %5, align 8, !tbaa !3
  store ptr %1, ptr %6, align 8, !tbaa !8
  store ptr %2, ptr %7, align 8, !tbaa !10
  store i32 %3, ptr %8, align 4, !tbaa !26
  call void @llvm.lifetime.start.p0(i64 8, ptr %9) #6
  call void @llvm.lifetime.start.p0(i64 8, ptr %10) #6
  call void @llvm.lifetime.start.p0(i64 4, ptr %11) #6
  store i32 0, ptr %11, align 4, !tbaa !26
  br label %12

12:                                               ; preds = %27, %4
  %13 = load i32, ptr %11, align 4, !tbaa !26
  %14 = load i32, ptr %8, align 4, !tbaa !26
  %15 = icmp slt i32 %13, %14
  br i1 %15, label %16, label %20

16:                                               ; preds = %12
  %17 = load ptr, ptr %7, align 8, !tbaa !10
  %18 = load i32, ptr %11, align 4, !tbaa !26
  %19 = call ptr @Vec_PtrEntry(ptr noundef %17, i32 noundef %18)
  store ptr %19, ptr %9, align 8, !tbaa !25
  br label %20

20:                                               ; preds = %16, %12
  %21 = phi i1 [ false, %12 ], [ true, %16 ]
  br i1 %21, label %22, label %30

22:                                               ; preds = %20
  %23 = load ptr, ptr %7, align 8, !tbaa !10
  %24 = load i32, ptr %11, align 4, !tbaa !26
  %25 = load ptr, ptr %9, align 8, !tbaa !25
  %26 = call ptr @Abc_ObjNot(ptr noundef %25)
  call void @Vec_PtrWriteEntry(ptr noundef %23, i32 noundef %24, ptr noundef %26)
  br label %27

27:                                               ; preds = %22
  %28 = load i32, ptr %11, align 4, !tbaa !26
  %29 = add nsw i32 %28, 1
  store i32 %29, ptr %11, align 4, !tbaa !26
  br label %12, !llvm.loop !58

30:                                               ; preds = %20
  %31 = load ptr, ptr %5, align 8, !tbaa !3
  %32 = load ptr, ptr %6, align 8, !tbaa !8
  %33 = load ptr, ptr %7, align 8, !tbaa !10
  %34 = load ptr, ptr %7, align 8, !tbaa !10
  %35 = load i32, ptr %8, align 4, !tbaa !26
  %36 = call ptr @Vec_PtrEntry(ptr noundef %34, i32 noundef %35)
  %37 = call ptr @Lpk_Implement_rec(ptr noundef %31, ptr noundef %32, ptr noundef %33, ptr noundef %36)
  store ptr %37, ptr %10, align 8, !tbaa !25
  %38 = load ptr, ptr %7, align 8, !tbaa !10
  %39 = load i32, ptr %8, align 4, !tbaa !26
  call void @Vec_PtrShrink(ptr noundef %38, i32 noundef %39)
  %40 = load ptr, ptr %10, align 8, !tbaa !25
  call void @llvm.lifetime.end.p0(i64 4, ptr %11) #6
  call void @llvm.lifetime.end.p0(i64 8, ptr %10) #6
  call void @llvm.lifetime.end.p0(i64 8, ptr %9) #6
  ret ptr %40
}

; Function Attrs: inlinehint nounwind uwtable
define internal i32 @Vec_PtrSize(ptr noundef %0) #2 {
  %2 = alloca ptr, align 8
  store ptr %0, ptr %2, align 8, !tbaa !10
  %3 = load ptr, ptr %2, align 8, !tbaa !10
  %4 = getelementptr inbounds nuw %struct.Vec_Ptr_t_, ptr %3, i32 0, i32 1
  %5 = load i32, ptr %4, align 4, !tbaa !59
  ret i32 %5
}

; Function Attrs: nounwind uwtable
define ptr @Lpk_Decompose(ptr noundef %0, ptr noundef %1, ptr noundef %2, ptr noundef %3, ptr noundef %4, i32 noundef %5, i32 noundef %6, i32 noundef %7) #0 {
  %9 = alloca ptr, align 8
  %10 = alloca ptr, align 8
  %11 = alloca ptr, align 8
  %12 = alloca ptr, align 8
  %13 = alloca ptr, align 8
  %14 = alloca i32, align 4
  %15 = alloca i32, align 4
  %16 = alloca i32, align 4
  %17 = alloca ptr, align 8
  %18 = alloca ptr, align 8
  %19 = alloca i32, align 4
  store ptr %0, ptr %9, align 8, !tbaa !3
  store ptr %1, ptr %10, align 8, !tbaa !8
  store ptr %2, ptr %11, align 8, !tbaa !10
  store ptr %3, ptr %12, align 8, !tbaa !30
  store ptr %4, ptr %13, align 8, !tbaa !30
  store i32 %5, ptr %14, align 4, !tbaa !26
  store i32 %6, ptr %15, align 4, !tbaa !26
  store i32 %7, ptr %16, align 4, !tbaa !26
  call void @llvm.lifetime.start.p0(i64 8, ptr %17) #6
  call void @llvm.lifetime.start.p0(i64 8, ptr %18) #6
  store ptr null, ptr %18, align 8, !tbaa !25
  call void @llvm.lifetime.start.p0(i64 4, ptr %19) #6
  %20 = load ptr, ptr %11, align 8, !tbaa !10
  %21 = call i32 @Vec_PtrSize(ptr noundef %20)
  store i32 %21, ptr %19, align 4, !tbaa !26
  %22 = load ptr, ptr %10, align 8, !tbaa !8
  %23 = load ptr, ptr %11, align 8, !tbaa !10
  %24 = load ptr, ptr %12, align 8, !tbaa !30
  %25 = load i32, ptr %14, align 4, !tbaa !26
  %26 = load i32, ptr %15, align 4, !tbaa !26
  %27 = load i32, ptr %16, align 4, !tbaa !26
  %28 = call ptr @Lpk_FunCreate(ptr noundef %22, ptr noundef %23, ptr noundef %24, i32 noundef %25, i32 noundef %26, i32 noundef %27)
  store ptr %28, ptr %17, align 8, !tbaa !12
  %29 = load ptr, ptr %13, align 8, !tbaa !30
  %30 = getelementptr inbounds i32, ptr %29, i64 0
  %31 = load i32, ptr %30, align 4, !tbaa !26
  %32 = icmp ne i32 %31, 0
  br i1 %32, label %38, label %33

33:                                               ; preds = %8
  %34 = load ptr, ptr %13, align 8, !tbaa !30
  %35 = getelementptr inbounds i32, ptr %34, i64 1
  %36 = load i32, ptr %35, align 4, !tbaa !26
  %37 = icmp ne i32 %36, 0
  br i1 %37, label %38, label %51

38:                                               ; preds = %33, %8
  %39 = load ptr, ptr %17, align 8, !tbaa !12
  %40 = getelementptr inbounds nuw %struct.Lpk_Fun_t_, ptr %39, i32 0, i32 3
  %41 = getelementptr inbounds [32 x i32], ptr %40, i64 0, i64 0
  %42 = load ptr, ptr %13, align 8, !tbaa !30
  %43 = load i32, ptr %19, align 4, !tbaa !26
  %44 = sext i32 %43 to i64
  %45 = mul i64 8, %44
  call void @llvm.memcpy.p0.p0.i64(ptr align 8 %41, ptr align 4 %42, i64 %45, i1 false)
  %46 = load ptr, ptr %17, align 8, !tbaa !12
  %47 = getelementptr inbounds nuw %struct.Lpk_Fun_t_, ptr %46, i32 0, i32 1
  %48 = load i32, ptr %47, align 8
  %49 = and i32 %48, -1073741825
  %50 = or i32 %49, 1073741824
  store i32 %50, ptr %47, align 8
  br label %51

51:                                               ; preds = %38, %33
  %52 = load ptr, ptr %17, align 8, !tbaa !12
  %53 = call i32 @Lpk_FunSuppMinimize(ptr noundef %52)
  %54 = load ptr, ptr %17, align 8, !tbaa !12
  %55 = getelementptr inbounds nuw %struct.Lpk_Fun_t_, ptr %54, i32 0, i32 1
  %56 = load i32, ptr %55, align 8
  %57 = lshr i32 %56, 7
  %58 = and i32 %57, 31
  %59 = load ptr, ptr %17, align 8, !tbaa !12
  %60 = getelementptr inbounds nuw %struct.Lpk_Fun_t_, ptr %59, i32 0, i32 1
  %61 = load i32, ptr %60, align 8
  %62 = lshr i32 %61, 12
  %63 = and i32 %62, 15
  %64 = icmp sle i32 %58, %63
  br i1 %64, label %65, label %71

65:                                               ; preds = %51
  %66 = load ptr, ptr %9, align 8, !tbaa !3
  %67 = load ptr, ptr %10, align 8, !tbaa !8
  %68 = load ptr, ptr %11, align 8, !tbaa !10
  %69 = load ptr, ptr %17, align 8, !tbaa !12
  %70 = call ptr @Lpk_ImplementFun(ptr noundef %66, ptr noundef %67, ptr noundef %68, ptr noundef %69)
  store ptr %70, ptr %18, align 8, !tbaa !25
  br label %83

71:                                               ; preds = %51
  %72 = load ptr, ptr %9, align 8, !tbaa !3
  %73 = load ptr, ptr %17, align 8, !tbaa !12
  %74 = call i32 @Lpk_Decompose_rec(ptr noundef %72, ptr noundef %73)
  %75 = icmp ne i32 %74, 0
  br i1 %75, label %76, label %82

76:                                               ; preds = %71
  %77 = load ptr, ptr %9, align 8, !tbaa !3
  %78 = load ptr, ptr %10, align 8, !tbaa !8
  %79 = load ptr, ptr %11, align 8, !tbaa !10
  %80 = load i32, ptr %19, align 4, !tbaa !26
  %81 = call ptr @Lpk_Implement(ptr noundef %77, ptr noundef %78, ptr noundef %79, i32 noundef %80)
  store ptr %81, ptr %18, align 8, !tbaa !25
  br label %82

82:                                               ; preds = %76, %71
  br label %83

83:                                               ; preds = %82, %65
  %84 = load ptr, ptr %11, align 8, !tbaa !10
  %85 = load i32, ptr %19, align 4, !tbaa !26
  call void @Lpk_DecomposeClean(ptr noundef %84, i32 noundef %85)
  %86 = load ptr, ptr %18, align 8, !tbaa !25
  call void @llvm.lifetime.end.p0(i64 4, ptr %19) #6
  call void @llvm.lifetime.end.p0(i64 8, ptr %18) #6
  call void @llvm.lifetime.end.p0(i64 8, ptr %17) #6
  ret ptr %86
}