; Function Attrs: nounwind uwtable
define ptr @Lpk_Decompose(ptr noundef %0, ptr noundef %1, ptr noundef %2, ptr noundef %3, ptr noundef readonly captures(none) %4, i32 noundef %5, i32 noundef %6, i32 noundef %7) local_unnamed_addr #0 {
  %9 = getelementptr i8, ptr %2, i64 4
  %.val = load i32, ptr %9, align 4, !tbaa !48
  %10 = tail call ptr @Lpk_FunCreate(ptr noundef %1, ptr noundef %2, ptr noundef %3, i32 noundef %5, i32 noundef %6, i32 noundef %7) #6
  %11 = load i32, ptr %4, align 4, !tbaa !44
  %.not = icmp eq i32 %11, 0
  br i1 %.not, label %12, label %15

12:                                               ; preds = %8
  %13 = getelementptr inbounds nuw i8, ptr %4, i64 4
  %14 = load i32, ptr %13, align 4, !tbaa !44
  %.not28 = icmp eq i32 %14, 0
  br i1 %.not28, label %22, label %15

15:                                               ; preds = %12, %8
  %16 = getelementptr inbounds nuw i8, ptr %10, i64 16
  %17 = sext i32 %.val to i64
  %18 = shl nsw i64 %17, 3
  tail call void @llvm.memcpy.p0.p0.i64(ptr nonnull align 8 %16, ptr nonnull align 4 %4, i64 %18, i1 false)
  %19 = getelementptr inbounds nuw i8, ptr %10, i64 8
  %20 = load i32, ptr %19, align 8
  %21 = or i32 %20, 1073741824
  store i32 %21, ptr %19, align 8
  br label %22

22:                                               ; preds = %15, %12
  %23 = tail call i32 @Lpk_FunSuppMinimize(ptr noundef %10) #6
  %24 = getelementptr inbounds nuw i8, ptr %10, i64 8
  %25 = load i32, ptr %24, align 8
  %26 = lshr i32 %25, 7
  %27 = and i32 %26, 31
  %28 = lshr i32 %25, 12
  %29 = and i32 %28, 15
  %.not29 = icmp samesign ugt i32 %27, %29
  br i1 %.not29, label %32, label %30

30:                                               ; preds = %22
  %31 = tail call ptr @Lpk_ImplementFun(ptr noundef %0, ptr noundef %1, ptr noundef nonnull %2, ptr noundef nonnull %10)
  br label %48

32:                                               ; preds = %22
  %33 = tail call i32 @Lpk_Decompose_rec(ptr noundef %0, ptr noundef nonnull %10)
  %.not30 = icmp eq i32 %33, 0
  br i1 %.not30, label %48, label %34

34:                                               ; preds = %32
  %35 = icmp sgt i32 %.val, 0
  br i1 %35, label %.lr.ph.i, label %Lpk_Implement.exit

.lr.ph.i:                                         ; preds = %34
  %36 = getelementptr i8, ptr %2, i64 8
  %wide.trip.count.i = zext nneg i32 %.val to i64
  br label %37

37:                                               ; preds = %37, %.lr.ph.i
  %indvars.iv.i = phi i64 [ 0, %.lr.ph.i ], [ %indvars.iv.next.i, %37 ]
  %.val16.i = load ptr, ptr %36, align 8, !tbaa !20
  %38 = getelementptr inbounds nuw ptr, ptr %.val16.i, i64 %indvars.iv.i
  %39 = load ptr, ptr %38, align 8, !tbaa !22
  %40 = ptrtoint ptr %39 to i64
  %41 = xor i64 %40, 1
  %42 = inttoptr i64 %41 to ptr
  store ptr %42, ptr %38, align 8, !tbaa !22
  %indvars.iv.next.i = add nuw nsw i64 %indvars.iv.i, 1
  %exitcond.not.i = icmp eq i64 %indvars.iv.next.i, %wide.trip.count.i
  br i1 %exitcond.not.i, label %Lpk_Implement.exit, label %37, !llvm.loop !47

Lpk_Implement.exit:                               ; preds = %37, %34
  %43 = getelementptr i8, ptr %2, i64 8
  %.val.i = load ptr, ptr %43, align 8, !tbaa !20
  %44 = sext i32 %.val to i64
  %45 = getelementptr inbounds ptr, ptr %.val.i, i64 %44
  %46 = load ptr, ptr %45, align 8, !tbaa !22
  %47 = tail call ptr @Lpk_Implement_rec(ptr noundef %0, ptr noundef %1, ptr noundef nonnull %2, ptr noundef %46)
  store i32 %.val, ptr %9, align 4, !tbaa !48
  br label %48

48:                                               ; preds = %32, %Lpk_Implement.exit, %30
  %.0 = phi ptr [ %31, %30 ], [ %47, %Lpk_Implement.exit ], [ null, %32 ]
  %.val89.i = load i32, ptr %9, align 4, !tbaa !48
  %49 = icmp slt i32 %.val, %.val89.i
  br i1 %49, label %.lr.ph.i31, label %Lpk_DecomposeClean.exit

.lr.ph.i31:                                       ; preds = %48
  %50 = getelementptr i8, ptr %2, i64 8
  %51 = sext i32 %.val to i64
  br label %52

52:                                               ; preds = %52, %.lr.ph.i31
  %indvars.iv.i32 = phi i64 [ %51, %.lr.ph.i31 ], [ %indvars.iv.next.i34, %52 ]
  %.val.i33 = load ptr, ptr %50, align 8, !tbaa !20
  %53 = getelementptr inbounds ptr, ptr %.val.i33, i64 %indvars.iv.i32
  %54 = load ptr, ptr %53, align 8, !tbaa !22
  tail call void @Lpk_FunFree(ptr noundef %54) #6
  %indvars.iv.next.i34 = add nsw i64 %indvars.iv.i32, 1
  %.val8.i = load i32, ptr %9, align 4, !tbaa !48
  %55 = sext i32 %.val8.i to i64
  %56 = icmp slt i64 %indvars.iv.next.i34, %55
  br i1 %56, label %52, label %Lpk_DecomposeClean.exit, !llvm.loop !72

Lpk_DecomposeClean.exit:                          ; preds = %52, %48
  store i32 %.val, ptr %9, align 4, !tbaa !48
  ret ptr %.0
}